; Function Attrs: mustprogress nounwind uwtable
define hidden noundef zeroext i1 @_ZN7Compile31should_optimize_expensive_nodesER12PhaseIterGVN(ptr nocapture noundef nonnull align 8 dereferenceable(2316) %0, ptr noundef nonnull align 8 dereferenceable(2416) %1) local_unnamed_addr #0 align 2 {
  %3 = getelementptr inbounds i8, ptr %0, i64 488
  %4 = load i32, ptr %3, align 8
  %5 = icmp eq i32 %4, 0
  br i1 %5, label %_ZN7Compile19cmp_expensive_nodesEPP4NodeS2_.exit.thread, label %.preheader

.preheader:                                       ; preds = %2
  %6 = icmp sgt i32 %4, 0
  br i1 %6, label %.lr.ph, label %._crit_edge

.lr.ph:                                           ; preds = %.preheader
  %7 = getelementptr inbounds i8, ptr %0, i64 496
  br label %8

8:                                                ; preds = %.lr.ph, %18
  %indvars.iv = phi i64 [ 0, %.lr.ph ], [ %indvars.iv.next, %18 ]
  %.01317 = phi i32 [ 0, %.lr.ph ], [ %.1, %18 ]
  %9 = load ptr, ptr %7, align 8
  %10 = getelementptr inbounds ptr, ptr %9, i64 %indvars.iv
  %11 = load ptr, ptr %10, align 8
  %12 = tail call noundef zeroext i1 @_ZNK4Node14is_unreachableER12PhaseIterGVN(ptr noundef nonnull align 8 dereferenceable(52) %11, ptr noundef nonnull align 8 dereferenceable(2416) %1) #17
  br i1 %12, label %18, label %13

13:                                               ; preds = %8
  %14 = load ptr, ptr %7, align 8
  %15 = sext i32 %.01317 to i64
  %16 = getelementptr inbounds ptr, ptr %14, i64 %15
  store ptr %11, ptr %16, align 8
  %17 = add nsw i32 %.01317, 1
  br label %18

18:                                               ; preds = %8, %13
  %.1 = phi i32 [ %.01317, %8 ], [ %17, %13 ]
  %indvars.iv.next = add nuw nsw i64 %indvars.iv, 1
  %19 = load i32, ptr %3, align 8
  %20 = sext i32 %19 to i64
  %21 = icmp slt i64 %indvars.iv.next, %20
  br i1 %21, label %8, label %._crit_edge, !llvm.loop !94

._crit_edge:                                      ; preds = %18, %.preheader
  %.013.lcssa = phi i32 [ 0, %.preheader ], [ %.1, %18 ]
  store i32 %.013.lcssa, ptr %3, align 8
  tail call void @_ZN7Compile20sort_expensive_nodesEv(ptr noundef nonnull align 8 dereferenceable(2316) %0)
  %22 = load i32, ptr %3, align 8
  %23 = icmp sgt i32 %22, 1
  br i1 %23, label %.lr.ph21, label %_ZN7Compile19cmp_expensive_nodesEPP4NodeS2_.exit.thread

.lr.ph21:                                         ; preds = %._crit_edge
  %24 = getelementptr inbounds i8, ptr %0, i64 496
  br label %25

25:                                               ; preds = %.lr.ph21, %_ZN7Compile19cmp_expensive_nodesEPP4NodeS2_.exit
  %indvars.iv26 = phi i64 [ 0, %.lr.ph21 ], [ %indvars.iv.next27, %_ZN7Compile19cmp_expensive_nodesEPP4NodeS2_.exit ]
  %26 = load ptr, ptr %24, align 8
  %27 = getelementptr inbounds ptr, ptr %26, i64 %indvars.iv26
  %indvars.iv.next27 = add nuw nsw i64 %indvars.iv26, 1
  %28 = getelementptr inbounds ptr, ptr %26, i64 %indvars.iv.next27
  %29 = load ptr, ptr %27, align 8
  %30 = load ptr, ptr %28, align 8
  %31 = load ptr, ptr %29, align 8
  %32 = load ptr, ptr %31, align 8
  %33 = tail call noundef i32 %32(ptr noundef nonnull align 8 dereferenceable(52) %29) #17
  %34 = load ptr, ptr %30, align 8
  %35 = load ptr, ptr %34, align 8
  %36 = tail call noundef i32 %35(ptr noundef nonnull align 8 dereferenceable(52) %30) #17
  %37 = icmp slt i32 %33, %36
  br i1 %37, label %_ZN7Compile19cmp_expensive_nodesEPP4NodeS2_.exit, label %38

38:                                               ; preds = %25
  %39 = load ptr, ptr %29, align 8
  %40 = load ptr, ptr %39, align 8
  %41 = tail call noundef i32 %40(ptr noundef nonnull align 8 dereferenceable(52) %29) #17
  %42 = load ptr, ptr %30, align 8
  %43 = load ptr, ptr %42, align 8
  %44 = tail call noundef i32 %43(ptr noundef nonnull align 8 dereferenceable(52) %30) #17
  %45 = icmp sgt i32 %41, %44
  br i1 %45, label %_ZN7Compile19cmp_expensive_nodesEPP4NodeS2_.exit, label %.preheader.i.i

.preheader.i.i:                                   ; preds = %38
  %46 = getelementptr inbounds i8, ptr %29, i64 24
  %47 = load i32, ptr %46, align 8
  %48 = icmp ugt i32 %47, 1
  br i1 %48, label %.lr.ph.i.i, label %_ZN7Compile19cmp_expensive_nodesEPP4NodeS2_.exit.thread

.lr.ph.i.i:                                       ; preds = %.preheader.i.i
  %49 = getelementptr inbounds i8, ptr %29, i64 8
  %50 = load ptr, ptr %49, align 8
  %51 = getelementptr inbounds i8, ptr %30, i64 8
  %52 = load ptr, ptr %51, align 8
  %wide.trip.count.i.i = zext i32 %47 to i64
  br label %54

53:                                               ; preds = %54
  %indvars.iv.next.i.i = add nuw nsw i64 %indvars.iv.i.i, 1
  %exitcond.not.i.i = icmp eq i64 %indvars.iv.next.i.i, %wide.trip.count.i.i
  br i1 %exitcond.not.i.i, label %_ZN7Compile19cmp_expensive_nodesEPP4NodeS2_.exit.thread, label %54, !llvm.loop !92

54:                                               ; preds = %53, %.lr.ph.i.i
  %indvars.iv.i.i = phi i64 [ 1, %.lr.ph.i.i ], [ %indvars.iv.next.i.i, %53 ]
  %55 = getelementptr inbounds ptr, ptr %50, i64 %indvars.iv.i.i
  %56 = load ptr, ptr %55, align 8
  %57 = getelementptr inbounds ptr, ptr %52, i64 %indvars.iv.i.i
  %58 = load ptr, ptr %57, align 8
  %or.cond.not = icmp eq ptr %56, %58
  br i1 %or.cond.not, label %53, label %_ZN7Compile19cmp_expensive_nodesEPP4NodeS2_.exit

_ZN7Compile19cmp_expensive_nodesEPP4NodeS2_.exit: ; preds = %54, %25, %38
  %59 = load i32, ptr %3, align 8
  %60 = add nsw i32 %59, -1
  %61 = sext i32 %60 to i64
  %62 = icmp slt i64 %indvars.iv.next27, %61
  br i1 %62, label %25, label %_ZN7Compile19cmp_expensive_nodesEPP4NodeS2_.exit.thread, !llvm.loop !95

_ZN7Compile19cmp_expensive_nodesEPP4NodeS2_.exit.thread: ; preds = %_ZN7Compile19cmp_expensive_nodesEPP4NodeS2_.exit, %.preheader.i.i, %53, %._crit_edge, %2
  %.014 = phi i1 [ false, %2 ], [ false, %._crit_edge ], [ true, %53 ], [ false, %_ZN7Compile19cmp_expensive_nodesEPP4NodeS2_.exit ], [ true, %.preheader.i.i ]
  ret i1 %.014
}